; Function Attrs: nounwind uwtable
define range(i32 -1, 1) i32 @H5G__loc_addr(ptr noundef %0, ptr noundef %1, ptr noundef %2) local_unnamed_addr #0 {
  %4 = load i8, ptr @H5G_init_g, align 1, !tbaa !3, !range !7, !noundef !8
  %5 = trunc nuw i8 %4 to i1
  %6 = load i8, ptr @H5_libterm_g, align 1, !range !7
  %7 = trunc nuw i8 %6 to i1
  %8 = xor i1 %7, true
  %9 = select i1 %5, i1 true, i1 %8
  br i1 %9, label %10, label %17, !prof !9

10:                                               ; preds = %3
  %11 = tail call i32 @H5G_traverse(ptr noundef %0, ptr noundef %1, i32 noundef 0, ptr noundef nonnull @H5G__loc_addr_cb, ptr noundef %2) #9
  %12 = icmp slt i32 %11, 0
  br i1 %12, label %13, label %17

13:                                               ; preds = %10
  %14 = load i64, ptr @H5E_SYM_g, align 8, !tbaa !10
  %15 = load i64, ptr @H5E_NOTFOUND_g, align 8, !tbaa !10
  %16 = tail call i32 (ptr, ptr, i32, i64, i64, ptr, ...) @H5E_printf_stack(ptr noundef nonnull @.str, ptr noundef nonnull @__func__.H5G__loc_addr, i32 noundef 685, i64 noundef %14, i64 noundef %15, ptr noundef nonnull @.str.29) #9
  br label %17

17:                                               ; preds = %13, %10, %3
  %.0 = phi i32 [ -1, %13 ], [ 0, %10 ], [ 0, %3 ]
  ret i32 %.0
}